; Function Attrs: nounwind uwtable
define ptr @l_Option_repr___at___private_Lean_Server_Test_Runner_0__Lean_Server_Test_Runner_Client_reprHyp____x40_Lean_Server_Test_Runner___hyg_417____spec__7(ptr noundef %0, ptr noundef %1) local_unnamed_addr #1 {
  %3 = ptrtoint ptr %0 to i64
  %4 = and i64 %3, 1
  %.not.i19 = icmp eq i64 %4, 0
  br i1 %.not.i19, label %8, label %5

5:                                                ; preds = %2
  %6 = lshr i64 %3, 1
  %7 = trunc i64 %6 to i32
  br label %lean_obj_tag.exit

8:                                                ; preds = %2
  %9 = getelementptr i8, ptr %0, i64 4
  %.val.i = load i32, ptr %9, align 4
  %10 = lshr i32 %.val.i, 24
  br label %lean_obj_tag.exit

lean_obj_tag.exit:                                ; preds = %5, %8
  %.0.i = phi i32 [ %7, %5 ], [ %10, %8 ]
  %11 = icmp eq i32 %.0.i, 0
  br i1 %11, label %12, label %14

12:                                               ; preds = %lean_obj_tag.exit
  %13 = load ptr, ptr @l_Option_repr___at___private_Lean_Server_Test_Runner_0__Lean_Server_Test_Runner_Client_reprHyp____x40_Lean_Server_Test_Runner___hyg_417____spec__7___closed__2, align 8, !tbaa !4
  br label %50

14:                                               ; preds = %lean_obj_tag.exit
  %15 = getelementptr inbounds nuw i8, ptr %0, i64 8
  %16 = load ptr, ptr %15, align 8, !tbaa !4
  %17 = ptrtoint ptr %16 to i64
  %18 = and i64 %17, 1
  %.not = icmp eq i64 %18, 0
  br i1 %.not, label %19, label %lean_inc.exit

19:                                               ; preds = %14
  %.val.i20 = load i32, ptr %16, align 4, !tbaa !8
  %20 = icmp sgt i32 %.val.i20, 0
  br i1 %20, label %21, label %23, !prof !11

21:                                               ; preds = %19
  %22 = add nuw i32 %.val.i20, 1
  store i32 %22, ptr %16, align 4, !tbaa !8
  br label %lean_inc.exit

23:                                               ; preds = %19
  %.not.i21 = icmp eq i32 %.val.i20, 0
  br i1 %.not.i21, label %lean_inc.exit, label %24

24:                                               ; preds = %23
  tail call void @lean_inc_ref_cold(ptr noundef nonnull %16) #6
  br label %lean_inc.exit

lean_inc.exit:                                    ; preds = %24, %23, %21, %14
  br i1 %.not.i19, label %25, label %lean_dec.exit16

25:                                               ; preds = %lean_inc.exit
  %26 = load i32, ptr %0, align 4, !tbaa !8
  %27 = icmp sgt i32 %26, 1
  br i1 %27, label %28, label %30, !prof !11

28:                                               ; preds = %25
  %29 = add nsw i32 %26, -1
  store i32 %29, ptr %0, align 4, !tbaa !8
  br label %lean_dec.exit16

30:                                               ; preds = %25
  %.not.i = icmp eq i32 %26, 0
  br i1 %.not.i, label %lean_dec.exit16, label %31

31:                                               ; preds = %30
  tail call void @lean_dec_ref_cold(ptr noundef nonnull %0) #6
  br label %lean_dec.exit16

lean_dec.exit16:                                  ; preds = %31, %30, %28, %lean_inc.exit
  %32 = lshr i64 %17, 1
  %33 = trunc i64 %32 to i8
  br i1 %.not, label %34, label %lean_dec.exit

34:                                               ; preds = %lean_dec.exit16
  %35 = load i32, ptr %16, align 4, !tbaa !8
  %36 = icmp sgt i32 %35, 1
  br i1 %36, label %37, label %39, !prof !11

37:                                               ; preds = %34
  %38 = add nsw i32 %35, -1
  store i32 %38, ptr %16, align 4, !tbaa !8
  br label %lean_dec.exit

39:                                               ; preds = %34
  %.not.i17 = icmp eq i32 %35, 0
  br i1 %.not.i17, label %lean_dec.exit, label %40

40:                                               ; preds = %39
  tail call void @lean_dec_ref_cold(ptr noundef nonnull %16) #6
  br label %lean_dec.exit

lean_dec.exit:                                    ; preds = %40, %39, %37, %lean_dec.exit16
  %41 = tail call ptr @l_Bool_repr(i8 noundef zeroext %33, ptr noundef nonnull inttoptr (i64 2049 to ptr)) #6
  %42 = load ptr, ptr @l_Option_repr___at___private_Lean_Server_Test_Runner_0__Lean_Server_Test_Runner_Client_reprHyp____x40_Lean_Server_Test_Runner___hyg_417____spec__7___closed__4, align 8, !tbaa !4
  tail call void @lean_inc_heartbeat() #6
  %43 = tail call noalias ptr @mi_malloc_small(i64 noundef 24) #6
  %44 = icmp eq ptr %43, null
  br i1 %44, label %45, label %lean_alloc_ctor.exit

45:                                               ; preds = %lean_dec.exit
  tail call void @lean_internal_panic_out_of_memory() #7
  unreachable

lean_alloc_ctor.exit:                             ; preds = %lean_dec.exit
  %46 = getelementptr inbounds nuw i8, ptr %43, i64 4
  store i32 1, ptr %43, align 4, !tbaa !8
  store i32 84017176, ptr %46, align 4
  %47 = getelementptr inbounds nuw i8, ptr %43, i64 8
  store ptr %42, ptr %47, align 8, !tbaa !4
  %48 = getelementptr inbounds nuw i8, ptr %43, i64 16
  store ptr %41, ptr %48, align 8, !tbaa !4
  %49 = tail call ptr @l_Repr_addAppParen(ptr noundef nonnull %43, ptr noundef %1) #6
  br label %50

50:                                               ; preds = %lean_alloc_ctor.exit, %12
  %.0 = phi ptr [ %13, %12 ], [ %49, %lean_alloc_ctor.exit ]
  ret ptr %.0
}